; Function Attrs: nounwind uwtable
define void @lv_table_clear_cell_ctrl(ptr noundef %0, i32 noundef %1, i32 noundef %2, i32 noundef %3) local_unnamed_addr #0 {
  %.not = icmp eq ptr %0, null
  br i1 %.not, label %.preheader, label %5

.preheader:                                       ; preds = %4, %.preheader
  br label %.preheader

5:                                                ; preds = %4
  %6 = getelementptr inbounds nuw i8, ptr %0, i64 64
  %7 = load i32, ptr %6, align 8, !tbaa !3
  %.not32 = icmp ult i32 %2, %7
  br i1 %.not32, label %10, label %8

8:                                                ; preds = %5
  %9 = add i32 %2, 1
  tail call void @lv_table_set_column_count(ptr noundef nonnull %0, i32 noundef %9)
  br label %10

10:                                               ; preds = %8, %5
  %11 = getelementptr inbounds nuw i8, ptr %0, i64 68
  %12 = load i32, ptr %11, align 4, !tbaa !18
  %.not33 = icmp ult i32 %1, %12
  br i1 %.not33, label %15, label %13

13:                                               ; preds = %10
  %14 = add i32 %1, 1
  tail call void @lv_table_set_row_count(ptr noundef nonnull %0, i32 noundef %14)
  br label %15

15:                                               ; preds = %13, %10
  %16 = load i32, ptr %6, align 8, !tbaa !3
  %17 = mul i32 %16, %1
  %18 = add i32 %17, %2
  %19 = getelementptr inbounds nuw i8, ptr %0, i64 72
  %20 = load ptr, ptr %19, align 8, !tbaa !22
  %21 = zext i32 %18 to i64
  %22 = getelementptr inbounds nuw ptr, ptr %20, i64 %21
  %23 = load ptr, ptr %22, align 8, !tbaa !23
  %24 = icmp eq ptr %23, null
  br i1 %24, label %25, label %32

25:                                               ; preds = %15
  %26 = tail call ptr @lv_malloc(i64 noundef 25) #9
  %27 = load ptr, ptr %19, align 8, !tbaa !22
  %28 = getelementptr inbounds nuw ptr, ptr %27, i64 %21
  store ptr %26, ptr %28, align 8, !tbaa !23
  %.not34 = icmp eq ptr %26, null
  br i1 %.not34, label %.preheader35, label %29

.preheader35:                                     ; preds = %25, %.preheader35
  br label %.preheader35

29:                                               ; preds = %25
  store i32 0, ptr %26, align 8, !tbaa !41
  %30 = getelementptr inbounds nuw i8, ptr %26, i64 8
  store ptr null, ptr %30, align 8, !tbaa !27
  %31 = getelementptr inbounds nuw i8, ptr %26, i64 16
  store i8 0, ptr %31, align 8, !tbaa !46
  %.pre = load ptr, ptr %19, align 8, !tbaa !22
  %.phi.trans.insert = getelementptr inbounds nuw ptr, ptr %.pre, i64 %21
  %.pre36 = load ptr, ptr %.phi.trans.insert, align 8, !tbaa !23
  br label %32

32:                                               ; preds = %29, %15
  %33 = phi ptr [ %.pre36, %29 ], [ %23, %15 ]
  %34 = xor i32 %3, -1
  %35 = load i32, ptr %33, align 8, !tbaa !41
  %36 = and i32 %35, %34
  store i32 %36, ptr %33, align 8, !tbaa !41
  ret void
}